target datalayout = "e-m:e-p270:32:32-p271:32:32-p272:64:64-i64:64-i128:128-f80:128-n8:16:32:64-S128"
target triple = "x86_64-pc-linux-gnu"

%"struct.nix::Sink" = type { ptr }
%"struct.nix::Hash" = type <{ i64, [64 x i8], i8, [7 x i8] }>
%"class.nix::HashSink" = type { %"struct.nix::BufferedSink", %"struct.nix::AbstractHashSink", i8, ptr, i64 }
%"struct.nix::BufferedSink" = type { %"struct.nix::Sink", i64, i64, %"class.std::unique_ptr" }
%"class.std::unique_ptr" = type { %"struct.std::__uniq_ptr_data" }
%"struct.std::__uniq_ptr_data" = type { %"class.std::__uniq_ptr_impl" }
%"class.std::__uniq_ptr_impl" = type { %"class.std::tuple" }
%"class.std::tuple" = type { %"struct.std::_Tuple_impl" }
%"struct.std::_Tuple_impl" = type { %"struct.std::_Head_base.9" }
%"struct.std::_Head_base.9" = type { ptr }
%"struct.nix::AbstractHashSink" = type { %"struct.nix::Sink" }
%"struct.std::pair" = type { %"struct.nix::Hash", i64 }

; Function Attrs: mustprogress uwtable
define void @_ZN3nix14SourceAccessor8hashPathERKNS_9CanonPathERSt8functionIFbRKNSt7__cxx1112basic_stringIcSt11char_traitsIcESaIcEEEEENS_13HashAlgorithmE(ptr dead_on_unwind noalias writable sret(%"struct.nix::Hash") align 8 %0, ptr noundef nonnull align 8 dereferenceable(80) %1, ptr noundef nonnull align 8 dereferenceable(32) %2, ptr noundef nonnull align 1 %3, i8 noundef signext %4) #5 align 2 personality ptr @__gxx_personality_v0 {
  %6 = alloca ptr, align 8
  %7 = alloca ptr, align 8
  %8 = alloca ptr, align 8
  %9 = alloca i8, align 1
  %10 = alloca %"class.nix::HashSink", align 8
  %11 = alloca ptr, align 8
  %12 = alloca i32, align 4
  %13 = alloca %"struct.std::pair", align 8
  store ptr %1, ptr %6, align 8
  store ptr %2, ptr %7, align 8
  store ptr %3, ptr %8, align 8
  store i8 %4, ptr %9, align 1
  %14 = load ptr, ptr %6, align 8
  %15 = load i8, ptr %9, align 1
  call void @_ZN3nix8HashSinkC1ENS_13HashAlgorithmE(ptr noundef nonnull align 8 dereferenceable(64) %10, i8 noundef signext %15)
  %16 = load ptr, ptr %7, align 8
  %17 = load ptr, ptr %10, align 8
  %18 = getelementptr i8, ptr %17, i64 -48
  %19 = load i64, ptr %18, align 8
  %20 = getelementptr inbounds i8, ptr %10, i64 %19
  %21 = load ptr, ptr %8, align 8
  %22 = load ptr, ptr %14, align 8
  %23 = getelementptr inbounds ptr, ptr %22, i64 8
  %24 = load ptr, ptr %23, align 8
  invoke void %24(ptr noundef nonnull align 8 dereferenceable(80) %14, ptr noundef nonnull align 8 dereferenceable(32) %16, ptr noundef nonnull align 8 dereferenceable(8) %20, ptr noundef nonnull align 1 %21)
          to label %25 unwind label %28

25:                                               ; preds = %5
  invoke void @_ZN3nix8HashSink6finishEv(ptr dead_on_unwind writable sret(%"struct.std::pair") align 8 %13, ptr noundef nonnull align 8 dereferenceable(64) %10)
          to label %26 unwind label %28

26:                                               ; preds = %25
  %27 = getelementptr inbounds %"struct.std::pair", ptr %13, i32 0, i32 0
  call void @llvm.memcpy.p0.p0.i64(ptr align 8 %0, ptr align 8 %27, i64 80, i1 false)
  call void @_ZN3nix8HashSinkD1Ev(ptr noundef nonnull align 8 dereferenceable(64) %10) #3
  ret void

28:                                               ; preds = %25, %5
  %29 = landingpad { ptr, i32 }
          cleanup
  %30 = extractvalue { ptr, i32 } %29, 0
  store ptr %30, ptr %11, align 8
  %31 = extractvalue { ptr, i32 } %29, 1
  store i32 %31, ptr %12, align 4
  call void @_ZN3nix8HashSinkD1Ev(ptr noundef nonnull align 8 dereferenceable(64) %10) #3
  br label %32

32:                                               ; preds = %28
  %33 = load ptr, ptr %11, align 8
  %34 = load i32, ptr %12, align 4
  %35 = insertvalue { ptr, i32 } poison, ptr %33, 0
  %36 = insertvalue { ptr, i32 } %35, i32 %34, 1
  resume { ptr, i32 } %36
}