; Function Attrs: mustprogress uwtable
define void @_ZN3nix14SourceAccessor8hashPathERKNS_9CanonPathERSt8functionIFbRKNSt7__cxx1112basic_stringIcSt11char_traitsIcESaIcEEEEENS_13HashAlgorithmE(ptr dead_on_unwind noalias nocapture writable writeonly sret(%"struct.nix::Hash") align 8 %0, ptr noundef nonnull align 8 dereferenceable(80) %1, ptr noundef nonnull align 8 dereferenceable(32) %2, ptr noundef nonnull align 1 %3, i8 noundef signext %4) local_unnamed_addr #4 align 2 personality ptr @__gxx_personality_v0 {
  %6 = alloca %"class.nix::HashSink", align 8
  %7 = alloca %"struct.std::pair", align 8
  call void @_ZN3nix8HashSinkC1ENS_13HashAlgorithmE(ptr noundef nonnull align 8 dereferenceable(64) %6, i8 noundef signext %4)
  %8 = load ptr, ptr %6, align 8
  %9 = getelementptr i8, ptr %8, i64 -48
  %10 = load i64, ptr %9, align 8
  %11 = getelementptr inbounds i8, ptr %6, i64 %10
  %12 = load ptr, ptr %1, align 8
  %13 = getelementptr inbounds i8, ptr %12, i64 64
  %14 = load ptr, ptr %13, align 8
  invoke void %14(ptr noundef nonnull align 8 dereferenceable(80) %1, ptr noundef nonnull align 8 dereferenceable(32) %2, ptr noundef nonnull align 8 dereferenceable(8) %11, ptr noundef nonnull align 1 %3)
          to label %15 unwind label %17

15:                                               ; preds = %5
  invoke void @_ZN3nix8HashSink6finishEv(ptr dead_on_unwind nonnull writable sret(%"struct.std::pair") align 8 %7, ptr noundef nonnull align 8 dereferenceable(64) %6)
          to label %16 unwind label %17

16:                                               ; preds = %15
  call void @llvm.memcpy.p0.p0.i64(ptr noundef nonnull align 8 dereferenceable(80) %0, ptr noundef nonnull align 8 dereferenceable(80) %7, i64 80, i1 false)
  call void @_ZN3nix8HashSinkD1Ev(ptr noundef nonnull align 8 dereferenceable(64) %6) #23
  ret void

17:                                               ; preds = %15, %5
  %18 = landingpad { ptr, i32 }
          cleanup
  call void @_ZN3nix8HashSinkD1Ev(ptr noundef nonnull align 8 dereferenceable(64) %6) #23
  resume { ptr, i32 } %18
}